; Function Attrs: nounwind uwtable
define dso_local i32 @clusteracct_storage_g_node_down(ptr noundef %0, ptr noundef %1, i64 noundef %2, ptr noundef %3, i32 noundef %4) local_unnamed_addr #0 {
  %6 = load i32, ptr @plugin_inited, align 4
  %7 = icmp eq i32 %6, 1
  br i1 %7, label %11, label %8

8:                                                ; preds = %5
  %9 = load ptr, ptr getelementptr inbounds nuw (i8, ptr @ops, i64 432), align 8
  %10 = tail call i32 %9(ptr noundef %0, ptr noundef %1, i64 noundef %2, ptr noundef %3, i32 noundef %4) #8
  br label %11

11:                                               ; preds = %5, %8
  %.0 = phi i32 [ %10, %8 ], [ 0, %5 ]
  ret i32 %.0
}